target datalayout = "e-m:e-p270:32:32-p271:32:32-p272:64:64-i64:64-i128:128-f80:128-n8:16:32:64-S128"
target triple = "x86_64-pc-linux-gnu"

%struct.SDL_Tray = type { ptr, ptr, [21 x i8], [256 x i8], ptr }

@app_indicator_set_icon = internal global ptr null, align 8
@new_tmp_filename.count = internal global i32 0, align 4
@.str.44 = private unnamed_addr constant [10 x i8] c"%s/%d.bmp\00", align 1
@.str.45 = private unnamed_addr constant [40 x i8] c"Failed to format new temporary filename\00", align 1

; Function Attrs: nounwind uwtable
define internal zeroext i1 @new_tmp_filename(ptr noundef %0) #0 {
  %2 = alloca i1, align 1
  %3 = alloca ptr, align 8
  %4 = alloca i32, align 4
  %5 = alloca i32, align 4
  store ptr %0, ptr %3, align 8
  call void @llvm.lifetime.start.p0(i64 4, ptr %4) #7
  %6 = load ptr, ptr %3, align 8
  %7 = getelementptr inbounds nuw %struct.SDL_Tray, ptr %6, i32 0, i32 3
  %8 = getelementptr inbounds [256 x i8], ptr %7, i64 0, i64 0
  %9 = load ptr, ptr %3, align 8
  %10 = getelementptr inbounds nuw %struct.SDL_Tray, ptr %9, i32 0, i32 2
  %11 = getelementptr inbounds [21 x i8], ptr %10, i64 0, i64 0
  %12 = load i32, ptr @new_tmp_filename.count, align 4
  %13 = add nsw i32 %12, 1
  store i32 %13, ptr @new_tmp_filename.count, align 4
  %14 = call i32 (ptr, i64, ptr, ...) @SDL_snprintf_REAL(ptr noundef %8, i64 noundef 256, ptr noundef @.str.44, ptr noundef %11, i32 noundef %12)
  store i32 %14, ptr %4, align 4
  %15 = load i32, ptr %4, align 4
  %16 = icmp sgt i32 %15, 0
  br i1 %16, label %17, label %22

17:                                               ; preds = %1
  %18 = load i32, ptr %4, align 4
  %19 = zext i32 %18 to i64
  %20 = icmp ult i64 %19, 255
  br i1 %20, label %21, label %22

21:                                               ; preds = %17
  store i1 true, ptr %2, align 1
  store i32 1, ptr %5, align 4
  br label %27

22:                                               ; preds = %17, %1
  %23 = load ptr, ptr %3, align 8
  %24 = getelementptr inbounds nuw %struct.SDL_Tray, ptr %23, i32 0, i32 3
  %25 = getelementptr inbounds [256 x i8], ptr %24, i64 0, i64 0
  store i8 0, ptr %25, align 1
  %26 = call zeroext i1 (ptr, ...) @SDL_SetError_REAL(ptr noundef @.str.45)
  store i1 false, ptr %2, align 1
  store i32 1, ptr %5, align 4
  br label %27

27:                                               ; preds = %22, %21
  call void @llvm.lifetime.end.p0(i64 4, ptr %4) #7
  %28 = load i1, ptr %2, align 1
  ret i1 %28
}

; Function Attrs: nounwind uwtable
define hidden void @SDL_SetTrayIcon_REAL(ptr noundef %0, ptr noundef %1) #0 {
  %3 = alloca ptr, align 8
  %4 = alloca ptr, align 8
  store ptr %0, ptr %3, align 8
  store ptr %1, ptr %4, align 8
  %5 = load ptr, ptr %3, align 8
  %6 = call zeroext i1 @SDL_ObjectValid(ptr noundef %5, i32 noundef 11)
  br i1 %6, label %8, label %7

7:                                                ; preds = %2
  br label %46

8:                                                ; preds = %2
  %9 = load ptr, ptr %3, align 8
  %10 = getelementptr inbounds nuw %struct.SDL_Tray, ptr %9, i32 0, i32 3
  %11 = getelementptr inbounds [256 x i8], ptr %10, i64 0, i64 0
  %12 = load i8, ptr %11, align 1
  %13 = icmp ne i8 %12, 0
  br i1 %13, label %14, label %19

14:                                               ; preds = %8
  %15 = load ptr, ptr %3, align 8
  %16 = getelementptr inbounds nuw %struct.SDL_Tray, ptr %15, i32 0, i32 3
  %17 = getelementptr inbounds [256 x i8], ptr %16, i64 0, i64 0
  %18 = call zeroext i1 @SDL_RemovePath_REAL(ptr noundef %17)
  br label %19

19:                                               ; preds = %14, %8
  %20 = load ptr, ptr %4, align 8
  %21 = icmp ne ptr %20, null
  br i1 %21, label %22, label %38

22:                                               ; preds = %19
  %23 = load ptr, ptr %3, align 8
  %24 = call zeroext i1 @new_tmp_filename(ptr noundef %23)
  br i1 %24, label %25, label %38

25:                                               ; preds = %22
  %26 = load ptr, ptr %4, align 8
  %27 = load ptr, ptr %3, align 8
  %28 = getelementptr inbounds nuw %struct.SDL_Tray, ptr %27, i32 0, i32 3
  %29 = getelementptr inbounds [256 x i8], ptr %28, i64 0, i64 0
  %30 = call zeroext i1 @SDL_SaveBMP_REAL(ptr noundef %26, ptr noundef %29)
  %31 = load ptr, ptr @app_indicator_set_icon, align 8
  %32 = load ptr, ptr %3, align 8
  %33 = getelementptr inbounds nuw %struct.SDL_Tray, ptr %32, i32 0, i32 0
  %34 = load ptr, ptr %33, align 8
  %35 = load ptr, ptr %3, align 8
  %36 = getelementptr inbounds nuw %struct.SDL_Tray, ptr %35, i32 0, i32 3
  %37 = getelementptr inbounds [256 x i8], ptr %36, i64 0, i64 0
  call void %31(ptr noundef %34, ptr noundef %37)
  br label %46

38:                                               ; preds = %22, %19
  %39 = load ptr, ptr %3, align 8
  %40 = getelementptr inbounds nuw %struct.SDL_Tray, ptr %39, i32 0, i32 3
  %41 = getelementptr inbounds [256 x i8], ptr %40, i64 0, i64 0
  store i8 0, ptr %41, align 1
  %42 = load ptr, ptr @app_indicator_set_icon, align 8
  %43 = load ptr, ptr %3, align 8
  %44 = getelementptr inbounds nuw %struct.SDL_Tray, ptr %43, i32 0, i32 0
  %45 = load ptr, ptr %44, align 8
  call void %42(ptr noundef %45, ptr noundef null)
  br label %46

46:                                               ; preds = %7, %38, %25
  ret void
}