; Function Attrs: nounwind uwtable
define hidden void @SDL_SetTrayIcon_REAL(ptr noundef %0, ptr noundef %1) local_unnamed_addr #0 {
  %3 = tail call zeroext i1 @SDL_ObjectValid(ptr noundef %0, i32 noundef 11) #10
  br i1 %3, label %4, label %22

4:                                                ; preds = %2
  %5 = getelementptr inbounds nuw i8, ptr %0, i64 37
  %6 = load i8, ptr %5, align 1
  %.not = icmp eq i8 %6, 0
  br i1 %.not, label %9, label %7

7:                                                ; preds = %4
  %8 = tail call zeroext i1 @SDL_RemovePath_REAL(ptr noundef nonnull %5) #10
  br label %9

9:                                                ; preds = %7, %4
  %.not11 = icmp eq ptr %1, null
  br i1 %.not11, label %19, label %10

10:                                               ; preds = %9
  %11 = getelementptr inbounds nuw i8, ptr %0, i64 16
  %12 = load i32, ptr @new_tmp_filename.count, align 4
  %13 = add nsw i32 %12, 1
  store i32 %13, ptr @new_tmp_filename.count, align 4
  %14 = tail call i32 (ptr, i64, ptr, ...) @SDL_snprintf_REAL(ptr noundef nonnull %5, i64 noundef 256, ptr noundef nonnull @.str.44, ptr noundef nonnull %11, i32 noundef %12) #10
  %15 = add i32 %14, -1
  %or.cond.i = icmp ult i32 %15, 254
  br i1 %or.cond.i, label %17, label %new_tmp_filename.exit

new_tmp_filename.exit:                            ; preds = %10
  store i8 0, ptr %5, align 1
  %16 = tail call zeroext i1 (ptr, ...) @SDL_SetError_REAL(ptr noundef nonnull @.str.45) #10
  br label %19

17:                                               ; preds = %10
  %18 = tail call zeroext i1 @SDL_SaveBMP_REAL(ptr noundef nonnull %1, ptr noundef nonnull %5) #10
  br label %.sink.split

19:                                               ; preds = %new_tmp_filename.exit, %9
  store i8 0, ptr %5, align 1
  br label %.sink.split

.sink.split:                                      ; preds = %17, %19
  %.sink12 = phi ptr [ null, %19 ], [ %5, %17 ]
  %20 = load ptr, ptr @app_indicator_set_icon, align 8
  %21 = load ptr, ptr %0, align 8
  tail call void %20(ptr noundef %21, ptr noundef %.sink12) #10
  br label %22

22:                                               ; preds = %.sink.split, %2
  ret void
}